	.file	"omp.cpp"
	.section	.gnu.offload_lto_.inline.39b1fde6222b06ea,"e",@progbits
	.base64	"KLUv/SAxPQEA+CUAAQAADYCAgIADZgAAAhYEAIGAgIB+AgACAAAAAAACAC1EbQAL"
	.text
	.section	.gnu.offload_lto_.jmpfuncs.39b1fde6222b06ea,"e",@progbits
	.base64	"KLUv/SAORQAAEAIAAQAcwAI="
	.text
	.section	.gnu.offload_lto_.ipa_modref.39b1fde6222b06ea,"e",@progbits
	.base64	"KLUv/SAORQAAEAIAAQAcwAI="
	.text
	.section	.gnu.offload_lto_.lto.39b1fde6222b06ea,"e",@progbits
	.base64	"DwABAAAAAQA="
	.text
	.section	.gnu.offload_lto_main._omp_fn.0.0.39b1fde6222b06ea,"e",@progbits
	.base64	"KLUv/WCxAn0UAGblgkjg7igdKHIEpkCNyOCAK1BNOKzgc/mDntp9xC8J9B0h78y4jPZVZ2vpV9t/tvnqcwxjjJk8URgxs2iBjr4stHxuq41sQmIlSSltAG0AagCsFJYQyCVDD3C353HRdhja13mH23dQVtuj0S1uSGWQedG9Cxgvzm+MF32zT7xXs6+dGxEsdnelHFyGt89TSWbc/PEF5nPifhLRxWjoLITljx5uUBEEc9J0CwaDA55BsnbXz83cAWy7ZZuBHb4IptUi0eh4v89tuh+P5zc6ad9+kX9kjBudBdizYF78e+7zDw9hDCH7QwdxOxEtgcYuLgVwV6dg"
	.base64	"Xpz7/cb48yCaTw5kM0jvPBBMew0ot40sDdyFIRyk3b2H8262z7RFIRALCh5wdz0uFjB9Y7SVAjaD+D0TUn90Fs5Mi6TJyimFk+YY5WKilIwhVa8VUrfSKGqYQmhJRVV8FdWAz4SXUnNsH7iqTM2KnLb8qSCpOX8qmKE7PxW07myUhj7N0OUMPTU0+Z1/JEOLeqP7ANRl9dsNBn/7E19uThQkj3CSkFat9QqZxWQfGJ7NXB+zmGx6RjJCgz2o1VoiHi4V7CVzqWi1EljsxCV7qUxgNFqrQUlLRAWLyUZUHbavO9sdv6IUZWJpZVeqzz6OGgc0AjYyJU7KYZMU3r5x"
	.base64	"aqmKYUUnRVsknIR9c3cR+D8z2tTSl9MWjwg3IFACQcxdN5XskmIYuumHDrfxQFwI0ah5kbCqG8ZWsRF2WV+4mu15kT1jtRzbxBG0IuzUGeAM9GL4jtAq3oMC9/ltwnf4dwRVt6XaqWrD9Gr9F+VZ5nUVeqIJJDHNYxwZi9RybfcRCyhtJGz5isABCbnGQPiPQlsNmW50TU+EVwY="
	.text
	.section	.gnu.offload_lto_.symbol_nodes.39b1fde6222b06ea,"e",@progbits
	.base64	"KLUv/SAkIQEAIAAAAAACAH8A//////////8fAZDOAAB/AACs0IKCkAMAAAAA"
	.text
	.section	.gnu.offload_lto_.refs.39b1fde6222b06ea,"e",@progbits
	.base64	"KLUv/SAFKQAAAQAAAAA="
	.text
	.section	.gnu.offload_lto_.offload_table.39b1fde6222b06ea,"e",@progbits
	.base64	"KLUv/SAKUQAABgAAAAEAA4AEAA=="
	.text
	.section	.gnu.offload_lto_.decls.39b1fde6222b06ea,"e",@progbits
	.base64	"KLUv/WCHA1UbALb1u0mgmFE6wGoKlH3ieTyQJhnjXZyPrPgS/R9OKgxWpAn0VHM+vI1GwpNGra39CaYDfjwN1gIP9TEuvEHrf2G96lrqkFghAm9JxpYplACnAKcAJ5oIfv6m798r80yDxTNNMVREQSyRhJ5miOBMD/xppgymflPqxM1Fr+MBThRa3Yr49/6V+oUnXgX5BOmX/1rOq53//X7hgd9hmFPn76MU/Jni2Bm/E7H6FU+4N9Oh79dTemk0068WTQkpLK1K2uZg24NtKttH209sV9m22Y5iY28L21C213aU7bq1tbVl24JtGTbNi5ZAwYHrj/ErKIdZyLio"
	.base64	"5Bbx8UKXpRuVXCI+DpuGYCq56Y3NmeIWKpXcIa8aN2xsVdJYxoKT1GRMV4iFeK9gn9Kycn14f9g2NzLK1DBTSfOU9hZtmxomLFOSKmkCpWvpHVOzBWhCSSWdQ74Cn6ImgeJ5f/qXR7PeS5/zo+bTA2G+84LrM6I1VkAYCnvvwfJKfwIvL3AjehDv3Qc1s2A8mOMj9lDgaToFVGcY0slW/ST5vvS0gCtN0yqV9FbZ22SpfNTwA68uMX5IqWT53XHtV8e1UjPvlL1KNkpnjSfwS/8ACz54VJVcgJZeFaXT3XGVq+Py7vD28AKx12l7LNTe9wtvrnWlmHXge+x98kJl"
	.base64	"qVy20GCxO/bIIkGySfY3s3pIDH9gtA4U9gBYccVDjLG8SXwkn5hysKikO5RBmjbIGj1zSrL6hT07JGiGaY14jQ5IO4vtaLVdLSgWwKV1RENHtqLdrvYTAUhmC8oByY52ONstBFAuSGZkOzqqCeFqPzLbLTckg0C6goQHDzDAOGzIcKPTAcV0t9xrJoI2YkdUVMPljoxsOhoSkhCNZmCHI8rpRhjtcDbYziZkVNvBdLfcjg2XKwLK4V6zGO4DTXfL0WI4otpNgH01SuijUqNA0Xk1eTJhVhI97zw4VrDILKmkJ9iz4zJZJwLMBv8Tl6w/feI97hLjoL2fdwg85ZU0"
	.base64	"IIACISvtDsIwQpYL0wo2cwzSCvnmZLzT4iFXGivU667rAAYGRn/C9FHbRggMmXbOF2WyNM+WpgFb/CsxtlvQHTDPZofVQXIYjtB4WYNeRBrBhUQkkldku+jqT6iwsUC2bzRKQHbw2Z6HJwbx5dodtOwWWbp3Hxk="
	.text
	.section	.gnu.offload_lto_.symtab.39b1fde6222b06ea,"e",@progbits
	.text
	.section	.gnu.offload_lto_.ext_symtab.39b1fde6222b06ea,"e",@progbits
	.ascii	"\001"
	.text
	.section	.gnu.offload_lto_.opts,"e",@progbits
	.string	"'-fno-openacc' '-fno-pie' '-fcf-protection=none' '-foffload-abi=lp64' '-foffload-abi-host-opts=-m64' '-fopenmp'"
	.text
	.section	.gnu.offload_lto_.mode_table.39b1fde6222b06ea,"e",@progbits
	.base64	"KLUv/SA0oQEAIAAAAAwAAAChj8SAgJCAeIGAxIiCAaCAxIiAoMkQiICAgqCigIAZAANRSQADU0kAA0RJAA=="
	.text
	.section	.rodata
.LC0:
	.string	"CPU"
	.text
	.globl	main
	.type	main, @function
main:
.LFB8:
	.cfi_startproc
	pushq	%rbp
	.cfi_def_cfa_offset 16
	.cfi_offset 6, -16
	movq	%rsp, %rbp
	.cfi_def_cfa_register 6
	subq	$176, %rsp
	leaq	-176(%rbp), %rdx
	movl	$0, %eax
	movl	$16, %ecx
	movq	%rdx, %rdi
	rep stosq
	movl	$0, -4(%rbp)
	jmp	.L2
.L3:
	movl	-4(%rbp), %eax
	cltq
	movl	-176(%rbp,%rax,4), %eax
	leal	(%rax,%rax), %edx
	movl	-4(%rbp), %eax
	cltq
	movl	%edx, -176(%rbp,%rax,4)
	addl	$1, -4(%rbp)
.L2:
	movl	-4(%rbp), %eax
	cltq
	cmpq	$31, %rax
	jbe	.L3
	movl	$.LC0, %edi
	call	puts
	leaq	-176(%rbp), %rax
	movq	%rax, -40(%rbp)
	movq	$-130816, -32(%rbp)
	movq	$512, -24(%rbp)
	movq	$0, -16(%rbp)
	leaq	-40(%rbp), %rax
	subq	$8, %rsp
	leaq	-32(%rbp), %rdx
	pushq	%rdx
	pushq	$0
	pushq	$0
	movl	$_ZZ4mainE17.omp_data_kinds.3, %r9d
	movl	$_ZZ4mainE17.omp_data_sizes.2, %r8d
	movq	%rax, %rcx
	movl	$1, %edx
	movl	$main._omp_fn.0, %esi
	movl	$-1, %edi
	call	GOMP_target_ext
	addq	$32, %rsp
	movl	$0, %eax
	leave
	.cfi_def_cfa 7, 8
	ret
	.cfi_endproc
.LFE8:
	.size	main, .-main
	.type	main._omp_fn.0, @function
main._omp_fn.0:
.LFB9:
	.cfi_startproc
	pushq	%rbp
	.cfi_def_cfa_offset 16
	.cfi_offset 6, -16
	movq	%rsp, %rbp
	.cfi_def_cfa_register 6
	movq	%rdi, -24(%rbp)
	movl	$0, -4(%rbp)
	nop
.L7:
	movl	-4(%rbp), %eax
	cltq
	cmpq	$31, %rax
	ja	.L9
	movq	-24(%rbp), %rax
	movq	(%rax), %rax
	movl	-4(%rbp), %edx
	movslq	%edx, %rdx
	movl	(%rax,%rdx,4), %eax
	leal	(%rax,%rax), %ecx
	movq	-24(%rbp), %rax
	movq	(%rax), %rax
	movl	-4(%rbp), %edx
	movslq	%edx, %rdx
	movl	%ecx, (%rax,%rdx,4)
	addl	$1, -4(%rbp)
	jmp	.L7
.L9:
	nop
	popq	%rbp
	.cfi_def_cfa 7, 8
	ret
	.cfi_endproc
.LFE9:
	.size	main._omp_fn.0, .-main._omp_fn.0
	.data
	.align 8
	.type	_ZZ4mainE17.omp_data_sizes.2, @object
	.size	_ZZ4mainE17.omp_data_sizes.2, 8
_ZZ4mainE17.omp_data_sizes.2:
	.quad	128
	.align 2
	.type	_ZZ4mainE17.omp_data_kinds.3, @object
	.size	_ZZ4mainE17.omp_data_kinds.3, 2
_ZZ4mainE17.omp_data_kinds.3:
	.value	515
	.section	.gnu.offload_vars,"aw"
	.align 8
	.type	.offload_var_table, @object
	.size	.offload_var_table, 0
.offload_var_table:
	.section	.gnu.offload_funcs,"aw"
	.align 8
	.type	.offload_func_table, @object
	.size	.offload_func_table, 8
.offload_func_table:
	.quad	main._omp_fn.0
	.section	.gnu.offload_ind_funcs,"aw"
	.align 8
	.type	.offload_ind_func_table, @object
	.size	.offload_ind_func_table, 0
.offload_ind_func_table:
	.ident	"GCC: (GNU) 15.2.1 20251022 (Red Hat 15.2.1-3)"
	.section	.note.GNU-stack,"",@progbits
